(dp0
S'METTS MARK'
p1
(dp2
S'poi_to_ratio'
p3
F0.04708798017348203
sS'to_messages'
p4
F6.33883956142964e-07
sS'deferral_payments'
p5
S'NaN'
p6
sS'poi_from_ratio'
p7
F0.034482758620689655
sS'expenses'
p8
F7.574080655270429e-07
sS'poi'
p9
I00
sS'deferred_income'
p10
g6
sS'email_address'
p11
S'mark.metts@enron.com'
p12
sS'long_term_incentive'
p13
g6
sS'shared_receipt_with_poi'
p14
F6.289123751421647e-07
sS'from_messages'
p15
F4.726296842340434e-07
sS'other'
p16
F6.594397894057883e-07
sS'bonus'
p17
F7.902573624488331e-07
sS'total_stock_value'
p18
F7.898464051139871e-07
sS'from_poi_to_this_person'
p19
F4.901742712076745e-07
sS'from_this_person_to_poi'
p20
F1.664383780961362e-07
sS'restricted_stock'
p21
F7.898464051139871e-07
sS'salary'
p22
I365788
sS'total_payments'
p23
F7.993246142242533e-07
sS'exercised_stock_options'
p24
g6
ssS'BAXTER JOHN C'
p25
(dp26
g3
S'NaN'
p27
sS'to_messages'
p28
g6
sS'deferral_payments'
p29
F8.023844922469554e-07
sg7
g27
sg8
F7.110227209531588e-07
sg9
I00
sS'deferred_income'
p30
F8.03408580086322e-07
sg11
g6
sS'long_term_incentive'
p31
F8.054400135211177e-07
sS'shared_receipt_with_poi'
p32
g6
sS'from_messages'
p33
g6
sg16
F8.130299980116034e-07
sg17
F8.012108241833726e-07
sg18
F8.318958756381418e-07
sS'from_poi_to_this_person'
p34
g6
sS'from_this_person_to_poi'
p35
g6
sg21
F8.185968376739016e-07
sg22
I267102
sg23
F8.23502633679843e-07
sS'exercised_stock_options'
p36
F8.257962101686726e-07
ssS'ELLIOTT STEVEN'
p37
(dp38
g3
g27
sg28
g6
sg5
g6
sg7
g27
sg8
F7.538338096382429e-07
sg9
I00
sg30
F7.835658680955889e-07
sg11
S'steven.elliott@enron.com'
p39
sg13
g6
sg32
g6
sg33
g6
sg16
F7.145716602648083e-07
sg17
F7.812670534556569e-07
sg18
F8.257925867151069e-07
sg34
g6
sg35
g6
sg21
F8.072306329354517e-07
sg22
I170941
sg23
F7.724744236301294e-07
sg36
F8.215727507628265e-07
ssS'CORDES WILLIAM R'
p40
(dp41
g3
F0.013089005235602094
sg4
F6.319441960450922e-07
sg5
g6
sg7
F0.0
sS'expenses'
p42
g6
sg9
I00
sg10
g6
sg11
S'bill.cordes@enron.com'
p43
sg13
g6
sg14
F5.156169989924285e-07
sg15
F4.0738746333277225e-07
sS'other'
p44
g6
sS'bonus'
p45
g6
sg18
F7.98975294474738e-07
sg19
F3.9225306481958874e-07
sg20
F0.0
sg21
F7.829473743572213e-07
sg22
g6
sS'total_payments'
p46
g6
sg36
F7.916019960398373e-07
ssS'HANNON KEVIN P'
p47
(dp48
g3
F0.03062200956937799
sg4
F6.428172588710308e-07
sg5
g6
sg7
F0.65625
sg8
F7.365776250811862e-07
sg9
I01
sg30
F8.152925883615926e-07
sg11
S'kevin.hannon@enron.com'
p49
sg31
F8.057294824886972e-07
sg14
F6.424912957437794e-07
sg15
F4.791417242597018e-07
sg16
F7.113486304124541e-07
sg17
F8.046020171097033e-07
sg18
F8.252025173064064e-07
sg19
F4.791417242597018e-07
sg20
F4.502427100103544e-07
sg21
F7.958999307073414e-07
sg22
I243293
sg23
F7.779463041495017e-07
sg36
F8.23268719524149e-07
ssS'MORDAUNT KRISTINA M'
p50
(dp51
g3
g27
sg28
g6
sg5
g6
sg7
g27
sg8
F7.371883853781671e-07
sg9
I00
sg10
g6
sg11
S'kristina.mordaunt@enron.com'
p52
sg13
g6
sg32
g6
sg33
g6
sg16
F6.527600139375167e-07
sg17
F7.799963185245184e-07
sg18
F7.722002113345384e-07
sg34
g6
sg35
g6
sg21
F7.722002113345384e-07
sg22
I267093
sg23
F7.91011982226276e-07
sg24
g6
ssS'MEYER ROCKFORD G'
p53
(dp54
g3
F0.0
sg4
F5.850132121037636e-07
sg29
F8.077183727569205e-07
sg7
F0.0
sg42
g6
sg9
I00
sg10
g6
sg11
S'rockford.meyer@enron.com'
p55
sg13
g6
sg14
F4.5357009233810296e-07
sg15
F4.702735086554698e-07
sg44
g6
sg45
g6
sg18
F7.976880678902374e-07
sg19
F0.0
sg20
F0.0
sg21
F7.859659934335946e-07
sg22
g6
sg23
F8.077183727569205e-07
sg36
F7.870477071986964e-07
ssS'MCMAHON JEFFREY'
p56
(dp57
g3
F0.024628450106157114
sg4
F6.687339621593518e-07
sg5
g6
sg7
F0.5416666666666666
sg8
F7.645287301882996e-07
sg9
I00
sg10
g6
sg11
S'jeffrey.mcmahon@enron.com'
p58
sg31
F7.926319768990223e-07
sg14
F6.670615069193818e-07
sg15
F5.045185473495765e-07
sg16
F7.784603828256073e-07
sg17
F8.127001859062266e-07
sg18
F8.061473302047705e-07
sg19
F5.156169989924285e-07
sg20
F4.652364035614616e-07
sg21
F7.890954751339999e-07
sg22
I370448
sg23
F8.191402183010207e-07
sg36
F7.999280371681112e-07
ssS'HORTON STANLEY C'
p59
(dp60
g3
F0.01872340425531915
sg4
F6.686700825062088e-07
sg29
F8.153600207617513e-07
sg7
F0.013979496738117428
sg42
g6
sg9
I00
sg10
g6
sg11
S'stanley.horton@enron.com'
p61
sg13
g6
sg14
F6.437425664454923e-07
sg15
F6.437111413743226e-07
sg44
g6
sg45
g6
sg18
F8.268995155675973e-07
sg19
F4.992612837630086e-07
sg20
F4.251157337115135e-07
sg21
F8.092173135409606e-07
sg22
g6
sg23
F8.153600207617513e-07
sg36
F8.224396766214093e-07
ssS'PIPER GREGORY F'
p62
(dp63
g3
F0.049273021001615507
sg4
F6.48484513477054e-07
sg29
F8.002870083705243e-07
sg7
F0.21621621621621623
sg8
F7.415833564484025e-07
sg9
I00
sg30
F7.361249557816825e-07
sg11
S'greg.piper@enron.com'
p64
sg13
g6
sg14
F6.309021592825072e-07
sg15
F5.830828669861913e-07
sg16
F6.325893550606107e-07
sg17
F7.835351303094822e-07
sg18
F7.963953677892585e-07
sg19
F5.184995016030996e-07
sg20
F5.045185473495765e-07
sg21
F7.839332030049795e-07
sg22
I197091
sg23
F8.068028087891492e-07
sg36
F7.963953677892585e-07
ssS'HUMPHREY GENE E'
p65
(dp66
g3
F0.078125
sg4
F5.575585354074247e-07
sg29
F8.145792760944894e-07
sg7
F1.0
sg8
F6.901948666297211e-07
sg9
I00
sg10
g6
sg11
S'gene.humphrey@enron.com'
p67
sg13
g6
sg14
F5.539710680509067e-07
sg15
F4.346839239873137e-07
sg44
g6
sg45
g6
sg18
F8.108169342588535e-07
sg19
F3.9225306481958874e-07
sg20
F4.346839239873137e-07
sS'restricted_stock'
p68
g6
sg22
I130724
sg23
F8.152159363331202e-07
sg36
F8.108169342588535e-07
ssS'UMANOFF ADAM S'
p69
(dp70
g3
F0.10810810810810811
sg4
F5.50497964357105e-07
sg5
g6
sg7
F0.0
sg8
F7.459518107323312e-07
sg9
I00
sg10
g6
sg11
S'adam.umanoff@enron.com'
p71
sg13
g6
sg14
F4.949206058651935e-07
sg15
F4.3896542688131073e-07
sg44
g6
sg17
F7.94657955772325e-07
sS'total_stock_value'
p72
g6
sg19
F4.0738746333277225e-07
sg20
F0.0
sg68
g6
sg22
I288589
sg23
F8.002928056072722e-07
sg24
g6
ssS'BLACHMAN JEREMY M'
p73
(dp74
g3
F0.010101010101010102
sg4
F6.702222653646254e-07
sg5
g6
sg7
F0.14285714285714285
sg8
F7.552018013377299e-07
sg9
I00
sg10
g6
sg11
S'jeremy.blachman@enron.com'
p75
sg31
F7.955010614897844e-07
sg14
F6.683612860402042e-07
sg15
F4.197268584569283e-07
sg16
F5.918542535515517e-07
sg17
F7.958431021259847e-07
sg18
F7.976631959054701e-07
sg19
F4.62536548653722e-07
sg20
F2.3655237201640701e-07
sg21
F7.704340474626714e-07
sg22
I248546
sg23
F8.089913051122822e-07
sg36
F7.941777694994212e-07
ssS'SUNDE MARTIN'
p76
(dp77
g3
F0.013978088401964487
sg4
F6.722178082704169e-07
sg5
g6
sg7
F0.34210526315789475
sg42
g6
sg9
I00
sg10
g6
sg11
S'marty.sunde@enron.com'
p78
sg31
F7.864647123201354e-07
sg14
F6.712854810421151e-07
sg15
F4.901742712076745e-07
sg16
F7.605636785402951e-07
sg17
F7.927503573298782e-07
sg18
F7.927255525583299e-07
sg19
F4.884895755674743e-07
sg20
F4.1384654091903267e-07
sg21
F7.927255525583299e-07
sg22
I257486
sg23
F8.050471037485862e-07
sg24
g6
ssS'GIBBS DANA R'
p79
(dp80
g3
F0.0
sg4
F5.707731106332205e-07
sg29
F7.874165327598371e-07
sg7
F0.0
sg42
g6
sg9
I00
sg10
g6
sg11
S'dana.gibbs@enron.com'
p81
sg31
F7.859489739525054e-07
sg14
F4.567172356618806e-07
sg15
F4.0738746333277225e-07
sg44
g6
sg45
g6
sg18
F8.103995013037426e-07
sg19
F0.0
sg20
F0.0
sg68
g6
sg22
g6
sg23
F7.978612388948911e-07
sg36
F8.103995013037426e-07
ssS'LOWRY CHARLES P'
p82
(dp83
g3
g27
sg28
g6
sg5
g6
sg7
g27
sg42
g6
sg9
I00
sg10
g6
sg11
g6
sg13
g6
sg32
g6
sg33
g6
sg44
g6
sg45
g6
sg18
F7.823152748498234e-07
sg34
g6
sg35
g6
sg21
F7.666483829295602e-07
sg22
g6
sg46
g6
sg36
F7.823152748498234e-07
ssS'COLWELL WESLEY'
p84
(dp85
g3
F0.13651877133105803
sg4
F6.597625358180755e-07
sg29
F7.32009261327373e-07
sg7
F0.275
sg8
F7.203250021976276e-07
sg9
I01
sg30
F7.654503879161454e-07
sg11
S'wes.colwell@enron.com'
p86
sg13
g6
sg14
F6.45509622544864e-07
sg15
F4.933869056237963e-07
sg16
F7.588745079344295e-07
sg17
F8.012108241833726e-07
sg18
F7.927099593152254e-07
sg19
F5.864879078930069e-07
sg20
F4.002380824992422e-07
sg21
F7.927099593152254e-07
sg22
I288542
sg23
F8.045047530036605e-07
sg24
g6
ssS'MULLER MARK S'
p87
(dp88
g3
F0.08823529411764706
sg4
F5.605027309919402e-07
sg29
F7.957110073451683e-07
sg7
F0.0
sg42
g6
sg9
I00
sg30
F7.931800584535767e-07
sg11
S's..muller@enron.com'
p89
sg31
F8.066989707790382e-07
sg14
F5.518345491700032e-07
sg15
F4.300826932925155e-07
sg16
F6.394559739287689e-07
sg17
F7.998712010655412e-07
sg18
F8.037412952047878e-07
sg19
F4.0738746333277225e-07
sg20
F0.0
sg21
F7.817728238830666e-07
sg22
I251654
sg23
F8.156742552449039e-07
sg36
F7.992440051789185e-07
ssS'JACKSON CHARLENE R'
p90
(dp91
g3
F0.09689922480620156
sg4
F5.896034889192162e-07
sg5
g6
sg7
F0.3392857142857143
sg8
F7.086704635668495e-07
sg9
I00
sg10
g6
sg11
S'charlene.jackson@enron.com'
p92
sg13
g6
sg14
F5.531296087409093e-07
sg15
F5.135929055218597e-07
sg16
F6.697354829644374e-07
sg17
F7.754269911909815e-07
sg18
F7.933294202583718e-07
sg19
F4.62536548653722e-07
sg20
F4.429652995338945e-07
sg21
F7.885543095254581e-07
sg22
I288558
sg23
F7.888701660238584e-07
sg36
F7.700486641245683e-07
ssS'WESTFAHL RICHARD K'
p93
(dp94
g3
g27
sg28
g6
sg5
g6
sg7
g27
sg8
F7.454607181699465e-07
sg9
I00
sg30
F7.101291346364584e-07
sg11
S'dick.westfahl@enron.com'
p95
sg31
F7.758577577189018e-07
sg32
g6
sg33
g6
sg16
F7.835827499674902e-07
sg45
g6
sg18
F7.828856607893283e-07
sg34
g6
sg35
g6
sg21
F7.828856607893283e-07
sg22
I63744
sg23
F7.94111429291265e-07
sg24
g6
ssS'WALTERS GARETH W'
p96
(dp97
g3
g27
sg28
g6
sg29
F7.461455184257902e-07
sg7
g27
sg8
F7.36415976685023e-07
sg9
I00
sg10
g6
sg11
g6
sg13
g6
sg32
g6
sg33
g6
sg44
g6
sg45
g6
sg18
F7.988573052725125e-07
sg34
g6
sg35
g6
sg68
g6
sg22
g6
sg23
F7.559320854504981e-07
sg36
F7.988573052725125e-07
ssS'WALLS JR ROBERT H'
p98
(dp99
g3
F0.02533532041728763
sg4
F6.272774958714981e-07
sg5
g6
sg7
F0.0
sg8
F7.450857448032574e-07
sg9
I00
sg10
g6
sg11
S'rob.walls@enron.com'
p100
sg31
F7.885567104071923e-07
sg14
F5.816692889247368e-07
sg15
F5.639045156425995e-07
sg16
F2.3655237201640701e-07
sg17
F7.958431021259847e-07
sg18
F8.241236871628569e-07
sg19
F4.346839239873137e-07
sg20
F0.0
sg21
F8.0511879673405e-07
sg22
I357091
sg23
F8.073165716144388e-07
sg36
F8.199502283147862e-07
ssS'KITCHEN LOUISE'
p101
(dp102
g3
F0.030222757375075255
sg4
F7.035553487186891e-07
sg5
g6
sg7
F0.11226851851851852
sg8
F6.940961209491865e-07
sg9
I00
sg10
g6
sg11
S'louise.kitchen@enron.com'
p103
sg13
g6
sg14
F6.816557945372175e-07
sg15
F6.592224926202744e-07
sg16
F7.573310265044165e-07
sg17
F8.152149104834869e-07
sg18
F7.887497113273316e-07
sg19
F5.884233272796984e-07
sg20
F5.770774728643994e-07
sg21
F7.860993634417085e-07
sg22
I271442
sg23
F8.16813239272212e-07
sg36
F7.544490055202984e-07
ssS'CHAN RONNIE'
p104
(dp105
g3
g27
sg28
g6
sg5
g6
sg7
g27
sg42
g6
sg9
I00
sg30
F7.583065429032669e-07
sg11
g6
sg13
g6
sg32
g6
sg33
g6
sg44
g6
sg45
g6
sg72
g6
sg34
g6
sg35
g6
sg21
F7.355502672481934e-07
sg22
g6
sg46
g6
sg24
g6
ssS'BELFER ROBERT'
p106
(dp107
g3
g27
sg28
g6
sg29
g27
sg7
g27
sg42
g6
sg9
I00
sg10
g6
sg11
g6
sg13
g6
sg32
g6
sg33
g6
sg44
g6
sg45
g6
sg18
g27
sg34
g6
sg35
g6
sg68
g6
sg22
g6
sg23
F7.590176023084734e-07
sg36
F6.785071076075531e-07
ssS'SHANKMAN JEFFREY A'
p108
(dp109
g3
F0.029183483390251473
sg4
F6.779417690059076e-07
sg5
g6
sg7
F0.030958597538232
sg8
F7.694413400557735e-07
sg9
I00
sg10
g6
sg11
S'jeffrey.shankman@enron.com'
p110
sg31
F7.889665275245337e-07
sg14
F6.592588286169231e-07
sg15
F6.725947759261333e-07
sg16
F6.47203158902728e-07
sg17
F8.088826633143671e-07
sg18
F8.094022510499693e-07
sg19
F5.420031789980686e-07
sg20
F5.354531387093677e-07
sg21
F7.910535907591507e-07
sg22
I304110
sg23
F8.149311386617788e-07
sg36
F8.040062313424378e-07
ssS'WODRASKA JOHN'
p111
(dp112
g3
g27
sg28
g6
sg5
g6
sg7
g27
sg42
g6
sg9
I00
sg10
g6
sg11
S'john.wodraska@enron.com'
p113
sg13
g6
sg32
g6
sg33
g6
sg16
F7.7048586705008e-07
sg45
g6
sg72
g6
sg34
g6
sg35
g6
sg68
g6
sg22
g6
sg23
F7.7048586705008e-07
sg24
g6
ssS'BERGSIEKER RICHARD P'
p114
(dp115
g3
F0.010443864229765013
sg4
F6.05929605191924e-07
sg5
g6
sg7
F0.0
sg8
F7.481583211610132e-07
sg9
I00
sg30
F7.86787813413456e-07
sg11
S'rick.bergsieker@enron.com'
p116
sg31
F7.695700663582755e-07
sg14
F5.852008140450133e-07
sg15
F5.165975425815923e-07
sg16
F7.846470504267621e-07
sg17
F7.754269911909815e-07
sg18
F7.917843464633366e-07
sg19
F3.0757704872836045e-07
sg20
F0.0
sg21
F7.917843464633366e-07
sg22
I187922
sg23
F7.907603354533187e-07
sg24
g6
ssS'URQUHART JOHN A'
p117
(dp118
g3
g27
sg28
g6
sg5
g6
sg7
g27
sg8
F7.738470806788702e-07
sg9
I00
sg30
F7.381749249343635e-07
sg11
g6
sg13
g6
sg32
g6
sg33
g6
sg44
g6
sg45
g6
sg72
g6
sg34
g6
sg35
g6
sg68
g6
sg22
g6
sg23
F7.738470806788702e-07
sg24
g6
ssS'BIBI PHILIPPE A'
p119
(dp120
g3
F0.01431238332296204
sg4
F6.569297513223918e-07
sg5
g6
sg7
F0.2
sg8
F7.392491753223446e-07
sg9
I00
sg10
g6
sg11
S'philippe.bibi@enron.com'
p121
sg31
F7.822014512409264e-07
sg14
F6.509848988986548e-07
sg15
F4.933869056237963e-07
sg16
F7.845829808185008e-07
sg17
F7.983924559293834e-07
sg18
F8.076830045699385e-07
sg19
F4.567172356618806e-07
sg20
F3.7292898545780936e-07
sg21
F7.825813074388977e-07
sg22
I213625
sg23
F8.092281704015131e-07
sg36
F8.042537397040611e-07
ssS'RIEKER PAULA H'
p122
(dp123
g3
F0.02635542168674699
sg4
F6.507888148705692e-07
sg29
F7.727223024072438e-07
sg7
F0.5853658536585366
sg8
F7.360846955639238e-07
sg9
I01
sg30
F7.585424198826471e-07
sg11
S'paula.rieker@enron.com'
p124
sg13
g6
sg14
F6.490128863182151e-07
sg15
F5.34806205574927e-07
sg16
F6.629863513039229e-07
sg17
F7.927503573298782e-07
sg18
F8.082728073663943e-07
sg19
F4.849470620294596e-07
sg20
F5.045185473495765e-07
sg21
F7.776401129836146e-07
sg22
I249201
sg23
F7.998585524876218e-07
sg36
F8.058971306041267e-07
ssS'WHALEY DAVID A'
p125
(dp126
g3
g27
sg28
g6
sg5
g6
sg7
g27
sg42
g6
sg9
I00
sg10
g6
sg11
g6
sg13
g6
sg32
g6
sg33
g6
sg44
g6
sg45
g6
sg18
F7.582936489996577e-07
sg34
g6
sg35
g6
sg68
g6
sg22
g6
sg46
g6
sg36
F7.582936489996577e-07
ssS'BECK SALLY W'
p127
(dp128
g3
F0.01968557758031442
sg4
F7.003014503264207e-07
sg5
g6
sg7
F0.08887865530739121
sg8
F7.384679920393023e-07
sg9
I00
sg10
g6
sg11
S'sally.beck@enron.com'
p129
sg13
g6
sg14
F6.72128308019576e-07
sg15
F6.863697894923438e-07
sg16
F6.210082869479135e-07
sg17
F7.927503573298782e-07
sg18
F7.629484944658914e-07
sg19
F5.632468602073462e-07
sg20
F6.062407615047686e-07
sg21
F7.629484944658914e-07
sg22
I231330
sg23
F7.979023345022724e-07
sg24
g6
ssS'HAUG DAVID L'
p130
(dp131
g3
F0.006980802792321117
sg4
F6.214669968095784e-07
sg5
g6
sg7
F0.3684210526315789
sg8
F6.143640155434084e-07
sg9
I00
sg10
g6
sg11
S'david.haug@enron.com'
p132
sg13
g6
sg14
F6.140384878844693e-07
sg15
F4.429652995338945e-07
sg44
g6
sg45
g6
sg18
F8.103930838128605e-07
sg19
F3.0757704872836045e-07
sg20
F3.6094749122772297e-07
sg21
F8.103930838128605e-07
sg22
g6
sg23
F6.143640155434084e-07
sg24
g6
ssS'ECHOLS JOHN B'
p133
(dp134
g3
g27
sg28
g6
sg5
g6
sg7
g27
sg8
F7.264402832233628e-07
sg9
I00
sg10
g6
sg11
S'john.echols@enron.com'
p135
sg31
F8.105075282472331e-07
sg32
g6
sg33
g6
sg16
F7.462028955221705e-07
sg17
F7.714514298418187e-07
sg18
F7.985310666580949e-07
sg34
g6
sg35
g6
sg21
F7.838486065663432e-07
sg22
I182245
sg23
F8.132018629274646e-07
sg36
F7.902963344188516e-07
ssS'MENDELSOHN JOHN'
p136
(dp137
g3
g27
sg28
g6
sg5
g6
sg7
g27
sg8
F5.645515047610478e-07
sg9
I00
sg30
F7.592504346216801e-07
sg11
g6
sg13
g6
sg32
g6
sg33
g6
sg44
g6
sg45
g6
sg72
g6
sg34
g6
sg35
g6
sg68
g6
sg22
g6
sg23
F5.645515047610478e-07
sg24
g6
ssS'HICKERSON GARY J'
p138
(dp139
g3
F0.030303030303030304
sg4
F6.505913676711306e-07
sg5
g6
sg7
F0.037037037037037035
sg8
F7.58319232080512e-07
sg9
I00
sg10
g6
sg11
S'gary.hickerson@enron.com'
p140
sg31
F7.513212183728247e-07
sg14
F6.376981142930128e-07
sg15
F4.6781204771187324e-07
sg16
F6.627638066581192e-07
sg17
F8.064768480993599e-07
sg18
F7.851789296798918e-07
sg19
F4.933869056237963e-07
sg20
F1.664383780961362e-07
sg21
F7.851789296798918e-07
sg22
I211788
sg23
F8.094711512511437e-07
sg24
g6
ssS'CLINE KENNETH W'
p141
(dp142
g3
g27
sg28
g6
sg5
g6
sg7
g27
sg42
g6
sg9
I00
sg10
g6
sg11
g6
sg13
g6
sg32
g6
sg33
g6
sg44
g6
sg45
g6
sg18
F7.70479661131679e-07
sg34
g6
sg35
g6
sg21
F7.918536755993811e-07
sg22
g6
sg46
g6
sg24
g6
ssS'LEWIS RICHARD'
p143
(dp144
g3
F0.01050420168067227
sg4
F6.396370248903709e-07
sg5
g6
sg7
F0.0
sg42
g6
sg9
I00
sg10
g6
sg11
S'richard.lewis@enron.com'
p145
sg13
g6
sg14
F6.307572899276938e-07
sg15
F4.652364035614616e-07
sg44
g6
sg45
g6
sg18
F7.95851963700567e-07
sg19
F3.9225306481958874e-07
sg20
F0.0
sg68
g6
sg22
g6
sg46
g6
sg36
F7.95851963700567e-07
ssS'HAYES ROBERT E'
p146
(dp147
g3
F0.031746031746031744
sg4
F6.166322380142222e-07
sg29
F7.02476630424059e-07
sg7
F0.0
sg42
g6
sg9
I00
sg10
g6
sg11
S'robert.hayes@enron.com'
p148
sg13
g6
sg14
F5.069510348037868e-07
sg15
F4.0738746333277225e-07
sg44
g6
sg45
g6
sg18
F7.663736271362895e-07
sg19
F4.300826932925155e-07
sg20
F0.0
sg21
F7.663736271362895e-07
sg22
g6
sg23
F7.02476630424059e-07
sg24
g6
ssS'MCCARTY DANNY J'
p149
(dp150
g3
F0.017445917655268667
sg4
F6.532602152425429e-07
sg5
g6
sg7
F0.009302325581395349
sg42
g6
sg9
I00
sg10
g6
sg11
S'danny.mccarty@enron.com'
p151
sg13
g6
sg14
F6.169331057314081e-07
sg15
F5.816692889247368e-07
sg44
g6
sg45
g6
sg18
F7.940442414408054e-07
sg19
F4.62536548653722e-07
sg20
F2.3655237201640701e-07
sg21
F7.574608094222704e-07
sg22
g6
sg46
g6
sg36
F7.919093778488327e-07
ssS'KOPPER MICHAEL J'
p152
(dp153
g3
g27
sg28
g6
sg5
g6
sg7
g27
sg8
F7.617267804033419e-07
sg9
I01
sg10
g6
sg11
S'michael.kopper@enron.com'
p154
sg31
F7.903296698086493e-07
sg32
g6
sg33
g6
sg16
F7.968741970605894e-07
sg17
F7.948829727852088e-07
sg18
F7.981573720330977e-07
sg34
g6
sg35
g6
sg21
F7.981573720330977e-07
sg22
I224305
sg23
F8.129883857199641e-07
sg24
g6
ssS'LEFF DANIEL P'
p155
(dp156
g3
F0.02374202693125443
sg4
F6.741019621635856e-07
sg5
g6
sg7
F0.2222222222222222
sg42
g6
sg9
I00
sg10
g6
sg11
S'dan.leff@enron.com'
p157
sg31
F8.034232683093893e-07
sg14
F6.724955225789086e-07
sg15
F5.20327324752401e-07
sg16
F6.766780663123998e-07
sg17
F7.983924559293834e-07
sg18
F7.817728238830666e-07
sg19
F5.237806397474065e-07
sg20
F4.197268584569283e-07
sg21
F7.817728238830666e-07
sg22
I273746
sg23
F8.130511843428134e-07
sg24
g6
ssS'LAVORATO JOHN J'
p158
(dp159
g3
F0.07273729163796666
sg4
F7.001027770090953e-07
sg5
g6
sg7
F0.15899419729206962
sg8
F7.445096211719502e-07
sg9
I00
sg10
g6
sg11
S'john.lavorato@enron.com'
p160
sg31
F8.091403432839449e-07
sg14
F6.838165190001173e-07
sg15
F6.715159785763046e-07
sg16
F6.558212063084524e-07
sg17
F8.281915158631037e-07
sg18
F8.223255295882086e-07
sg19
F6.183970701021984e-07
sg20
F6.087282777554152e-07
sg21
F7.985188423834416e-07
sg22
I339288
sg23
F8.316531461043141e-07
sg36
F8.193393175065294e-07
ssS'BERBERIAN DAVID'
p161
(dp162
g3
g27
sg28
g6
sg5
g6
sg7
g27
sg8
F7.124872541519192e-07
sg9
I00
sg10
g6
sg11
S'david.berberian@enron.com'
p163
sg13
g6
sg32
g6
sg33
g6
sg44
g6
sg45
g6
sg18
F8.120976858397745e-07
sg34
g6
sg35
g6
sg21
F7.961959595068449e-07
sg22
I216582
sg23
F7.738329239911551e-07
sg36
F8.057976534673771e-07
ssS'DETMERING TIMOTHY J'
p164
(dp165
g3
g27
sg28
g6
sg29
F7.963059460601201e-07
sg7
g27
sg8
F7.456131164602668e-07
sg9
I00
sg30
F7.943831025034461e-07
sg11
S'timothy.detmering@enron.com'
p166
sg31
F7.841822233443472e-07
sg32
g6
sg33
g6
sg16
F6.447003415255267e-07
sg17
F7.845558243453417e-07
sg18
F8.090860171294344e-07
sg34
g6
sg35
g6
sg21
F7.794615551596311e-07
sg22
I210500
sg23
F8.012692877782299e-07
sg36
F8.090860171294344e-07
ssS'WAKEHAM JOHN'
p167
(dp168
g3
g27
sg28
g6
sg5
g6
sg7
g27
sg8
F7.5925468980562e-07
sg9
I00
sg10
g6
sg11
g6
sg13
g6
sg32
g6
sg33
g6
sg44
g6
sg45
g6
sg72
g6
sg34
g6
sg35
g6
sg68
g6
sg22
g6
sg23
F7.725878751082685e-07
sg24
g6
ssS'POWERS WILLIAM'
p169
(dp170
g3
F0.0
sg4
F6.262874041611527e-07
sg5
g6
sg7
F0.0
sg42
g6
sg9
I00
sg30
F7.216781229406492e-07
sg11
S'ken.powers@enron.com'
p171
sg13
g6
sg14
F4.0738746333277225e-07
sg15
F4.652364035614616e-07
sg44
g6
sg45
g6
sg72
g6
sg19
F0.0
sg20
F0.0
sg68
g6
sg22
g6
sg46
g6
sg24
g6
ssS'GOLD JOSEPH'
p172
(dp173
g3
g27
sg28
g6
sg5
g6
sg7
g27
sg42
g6
sg9
I00
sg10
g6
sg11
S'joe.gold@enron.com'
p174
sg31
F7.788892716154436e-07
sg32
g6
sg33
g6
sg16
F7.952608777554654e-07
sg17
F7.938553188492856e-07
sg18
F7.963473606665896e-07
sg34
g6
sg35
g6
sg21
F7.851789296798918e-07
sg22
I272880
sg23
F8.09922450263856e-07
sg36
F7.850041468961668e-07
ssS'BANNANTINE JAMES M'
p175
(dp176
g3
F0.06890459363957598
sg4
F6.210082869479135e-07
sg5
g6
sg7
F0.0
sg8
F7.471433858004686e-07
sg9
I00
sg30
F6.907852464455071e-07
sg11
S'james.bannantine@enron.com'
p177
sg13
g6
sg14
F6.135440884022754e-07
sg15
F4.726296842340434e-07
sg16
F7.961105158140383e-07
sg45
g6
sg18
F8.225255245543442e-07
sg19
F4.918057145209909e-07
sg20
F0.0
sg21
F8.06972313038223e-07
sg22
I477
sg23
F7.970239170146779e-07
sg36
F8.189572869792372e-07
ssS'DUNCAN JOHN H'
p178
(dp179
g3
g27
sg28
g6
sg5
g6
sg7
g27
sg42
g6
sg9
I00
sg30
F7.298046277804695e-07
sg11
g6
sg13
g6
sg32
g6
sg33
g6
sg44
g6
sg45
g6
sg18
F7.822944876515334e-07
sg34
g6
sg35
g6
sg68
g6
sg22
g6
sg23
F7.535653645777218e-07
sg36
F7.822944876515334e-07
ssS'SHAPIRO RICHARD S'
p180
(dp181
g3
F0.0048848108786058485
sg4
F7.18294955451036e-07
sg5
g6
sg7
F0.053497942386831275
sg8
F7.646182493208836e-07
sg9
I00
sg10
g6
sg11
S'richard.shapiro@enron.com'
p182
sg13
g6
sg14
F6.875135089884299e-07
sg15
F6.478646003476969e-07
sg16
F6.290661249763698e-07
sg17
F7.915560504521393e-07
sg18
F7.981885172457754e-07
sg19
F5.292618805474926e-07
sg20
F5.220861567112822e-07
sg21
F7.826297941222732e-07
sg22
I269076
sg23
F7.99262019554303e-07
sg36
F7.904685359898151e-07
ssS'SHERRIFF JOHN R'
p183
(dp184
g3
F0.008785691873235017
sg4
F6.776362157675706e-07
sg5
g6
sg7
F0.25
sg42
g6
sg9
I00
sg10
g6
sg11
S'john.sherriff@enron.com'
p185
sg31
F7.889665275245337e-07
sg14
F6.653055269631481e-07
sg15
F5.408831779769054e-07
sg16
F8.077500390905062e-07
sg17
F8.046020171097033e-07
sg18
F8.1534697816082e-07
sg19
F4.702735086554698e-07
sg20
F4.567172356618806e-07
sg21
F8.023572472498116e-07
sg22
I428780
sg23
F8.199146907932169e-07
sg36
F8.076165438231361e-07
ssS'SHELBY REX'
p186
(dp187
g3
F0.057777777777777775
sg4
F5.836726114566389e-07
sg5
g6
sg7
F0.358974358974359
sg8
F7.278203558905268e-07
sg9
I01
sg30
F6.852232428788726e-07
sg11
S'rex.shelby@enron.com'
p188
sg13
g6
sg14
F5.40312130288177e-07
sg15
F4.918057145209909e-07
sg16
F8.053191866959073e-07
sg17
F7.714514298418187e-07
sg18
F8.120976858397745e-07
sg19
F4.1384654091903267e-07
sg20
F4.197268584569283e-07
sg21
F7.961959595068449e-07
sg22
I211844
sg23
F8.089111984824159e-07
sg36
F8.057976534673771e-07
ssS'LEMAISTRE CHARLES'
p189
(dp190
g3
g27
sg28
g6
sg5
g6
sg7
g27
sg42
g6
sg9
I00
sg30
F7.298046277804695e-07
sg11
g6
sg13
g6
sg32
g6
sg33
g6
sg44
g6
sg45
g6
sg18
F7.840693297316693e-07
sg34
g6
sg35
g6
sg68
g6
sg22
g6
sg23
F7.559503983829431e-07
sg36
F7.840693297316693e-07
ssS'DEFFNER JOSEPH M'
p191
(dp192
g3
F0.16106442577030813
sg4
F6.29522855743133e-07
sg5
g6
sg7
F0.05405405405405406
sg8
F7.408712587250395e-07
sg9
I00
sg10
g6
sg11
S'joseph.deffner@enron.com'
p193
sg31
F7.805348750640198e-07
sg14
F6.200707078897924e-07
sg15
F5.292618805474926e-07
sg16
F7.30292477622039e-07
sg17
F7.902573624488331e-07
sg18
F7.672995038818649e-07
sg19
F5.522707308044041e-07
sg20
F3.0757704872836045e-07
sg21
F7.651603813101033e-07
sg22
I206121
sg23
F8.01320954709203e-07
sg36
F7.215153745324266e-07
ssS'KISHKILL JOSEPH G'
p194
(dp195
g3
g27
sg28
g6
sg5
g6
sg7
g27
sg8
F7.614357582633389e-07
sg9
I00
sg30
F7.451286816029056e-07
sg11
S'joe.kishkill@enron.com'
p196
sg13
g6
sg32
g6
sg33
g6
sg16
F7.860727608773385e-07
sg45
g6
sg18
F7.989177579822928e-07
sg34
g6
sg35
g6
sg21
F7.989177579822928e-07
sg22
I174246
sg23
F7.928622863252958e-07
sg24
g6
ssS'WHALLEY LAWRENCE G'
p197
(dp198
g3
F0.03090214321315833
sg4
F6.951998006482822e-07
sg5
g6
sg7
F0.04316546762589928
sg8
F7.476931036804579e-07
sg9
I00
sg10
g6
sg11
S'greg.whalley@enron.com'
p199
sg31
F7.950476955263781e-07
sg14
F6.835181265611119e-07
sg15
F6.203413912336817e-07
sg16
F7.786732264880704e-07
sg17
F8.147487723366251e-07
sg18
F8.245295017166523e-07
sg19
F5.751704658518283e-07
sg20
F4.597011308389855e-07
sg21
F8.137444492462879e-07
sg22
I510364
sg23
F8.209622195154255e-07
sg36
F8.160272011347466e-07
ssS'MCCONNELL MICHAEL S'
p200
(dp201
g3
F0.02763592670471613
sg4
F6.788885662202346e-07
sg5
g6
sg7
F0.07075127644055434
sg8
F7.545270369311077e-07
sg9
I00
sg10
g6
sg11
S'mike.mcconnell@enron.com'
p202
sg31
F7.889665275245337e-07
sg14
F6.665259739797287e-07
sg15
F6.732576436669747e-07
sg16
F6.192447326026197e-07
sg17
F7.998712010655412e-07
sg18
F8.152207667367657e-07
sg19
F5.408831779769054e-07
sg20
F5.770774728643994e-07
sg21
F8.043821577977572e-07
sg22
I365038
sg23
F8.096082307235897e-07
sg36
F8.057848849275161e-07
ssS'PIRO JIM'
p203
(dp204
g3
F0.0
sg4
F5.156169989924285e-07
sg5
g6
sg7
F0.0625
sg42
g6
sg9
I00
sg10
g6
sg11
S'jim.piro@enron.com'
p205
sg13
g6
sg14
F2.785073135845828e-07
sg15
F4.300826932925155e-07
sg44
g6
sg45
g6
sg18
F7.435516927913612e-07
sg19
F0.0
sg20
F1.664383780961362e-07
sg21
F7.435516927913612e-07
sg22
g6
sg46
g6
sg24
g6
ssS'DELAINEY DAVID W'
p206
(dp207
g3
F0.02133850630455868
sg4
F6.767717817275236e-07
sg5
g6
sg7
F0.198435972629521
sg8
F7.556537364761268e-07
sg9
I01
sg10
g6
sg11
S'david.delainey@enron.com'
p208
sg31
F8.023755851563342e-07
sg14
F6.652182593184135e-07
sg15
F6.765462823940292e-07
sg16
F6.579765943197711e-07
sg17
F8.147487723366251e-07
sg18
F8.17380884938637e-07
sg19
F5.22941169591217e-07
sg20
F6.237272688569153e-07
sg21
F8.027032629275149e-07
sg22
I365163
sg23
F8.211674973473601e-07
sg36
F8.10870014504387e-07
ssS'SULLIVAN-SHAKLOVITZ COLLEEN'
p209
(dp210
g3
g27
sg28
g6
sg29
F7.697449881075536e-07
sg7
g27
sg42
g6
sg9
I00
sg10
g6
sg11
g6
sg31
F7.889665275245337e-07
sg32
g6
sg33
g6
sg16
F5.688067268463418e-07
sg17
F7.585424198826471e-07
sg18
F8.03147226996816e-07
sg34
g6
sg35
g6
sg68
g6
sg22
I162779
sg23
F7.983824201918882e-07
sg36
F8.03147226996816e-07
ssS'WROBEL BRUCE'
p211
(dp212
g3
g27
sg28
g6
sg5
g6
sg7
g27
sg42
g6
sg9
I00
sg10
g6
sg11
g6
sg13
g6
sg32
g6
sg33
g6
sg44
g6
sg45
g6
sg18
F7.648019175068751e-07
sg34
g6
sg35
g6
sg68
g6
sg22
g6
sg46
g6
sg36
F7.648019175068751e-07
ssS'LINDHOLM TOD A'
p213
(dp214
g3
g27
sg28
g6
sg29
F7.718142484382253e-07
sg7
g27
sg8
F7.476539474239548e-07
sg9
I00
sg10
g6
sg11
S'tod.lindholm@enron.com'
p215
sg31
F7.690317752840585e-07
sg32
g6
sg33
g6
sg16
F6.720272499361837e-07
sg17
F7.714514298418187e-07
sg18
F8.150499594940838e-07
sg34
g6
sg35
g6
sg21
F7.877482984154531e-07
sg22
I236457
sg23
F7.963164187336372e-07
sg36
F8.12416782551711e-07
ssS'MEYER JEROME J'
p216
(dp217
g3
g27
sg28
g6
sg5
g6
sg7
g27
sg8
F6.659935857064613e-07
sg9
I00
sg30
F7.391312534138352e-07
sg11
g6
sg13
g6
sg32
g6
sg33
g6
sg44
g6
sg45
g6
sg72
g6
sg34
g6
sg35
g6
sg68
g6
sg22
g6
sg23
F6.659935857064613e-07
sg24
g6
ssS'LAY KENNETH L'
p218
(dp219
g3
F0.028785396676807865
sg4
F6.859201917115033e-07
sg29
F7.717114267226597e-07
sg7
F0.4444444444444444
sg8
F7.585100200792835e-07
sg9
I01
sg30
F7.786140584502198e-07
sg11
S'kenneth.lay@enron.com'
p220
sg31
F8.173254197236975e-07
sg14
F6.694390150211158e-07
sg15
F4.86748360847706e-07
sg16
F8.315708948184489e-07
sg17
F8.26420085168772e-07
sg18
F8.506414173421519e-07
sg19
F5.556042665840423e-07
sg20
F4.300826932925155e-07
sg21
F8.360975245984099e-07
sg22
I1072321
sg23
F8.590878959113711e-07
sg36
F8.464418389296265e-07
ssS'BUTTS ROBERT H'
p221
(dp222
g3
g27
sg28
g6
sg5
g6
sg7
g27
sg8
F7.067078182279482e-07
sg9
I00
sg30
F7.52917983935286e-07
sg11
S'bob.butts@enron.com'
p223
sg31
F7.690317752840585e-07
sg32
g6
sg33
g6
sg16
F7.662803003637841e-07
sg17
F7.938553188492856e-07
sg18
F7.842614327701201e-07
sg34
g6
sg35
g6
sg21
F7.842614327701201e-07
sg22
I261516
sg23
F8.020974474954871e-07
sg24
g6
ssS'OLSON CINDY K'
p224
(dp225
g3
F0.016891891891891893
sg4
F6.47007342569841e-07
sg29
F7.536224285565368e-07
sg7
F0.28846153846153844
sg8
F7.496795761675156e-07
sg9
I00
sg10
g6
sg11
S'cindy.olson@enron.com'
p226
sg31
F7.585424198826471e-07
sg14
F6.359534332264346e-07
sg15
F5.092679898741093e-07
sg16
F6.403503951115077e-07
sg17
F7.938553188492856e-07
sg18
F8.127375835161554e-07
sg19
F4.467154203681486e-07
sg20
F4.251157337115135e-07
sg21
F7.979129847081114e-07
sg22
I329078
sg23
F8.026849563615909e-07
sg36
F8.059135403413085e-07
ssS'MCDONALD REBECCA'
p227
(dp228
g3
F0.06040268456375839
sg4
F6.374660837517514e-07
sg5
g6
sg7
F0.07692307692307693
sg42
g6
sg9
I00
sg10
g6
sg11
S'rebecca.mcdonald@enron.com'
p229
sg13
g6
sg14
F6.29823645630275e-07
sg15
F4.1384654091903267e-07
sg44
g6
sg45
g6
sg18
F8.064009547043409e-07
sg19
F5.114790968095702e-07
sg20
F1.664383780961362e-07
sg21
F7.973268037120358e-07
sg22
g6
sg46
g6
sg36
F7.940099419184543e-07
ssS'CUMBERLAND MICHAEL S'
p230
(dp231
g3
g27
sg28
g6
sg5
g6
sg7
g27
sg8
F7.272811447977002e-07
sg9
I00
sg10
g6
sg11
g6
sg31
F7.770998033927589e-07
sg32
g6
sg33
g6
sg16
F6.294724388476045e-07
sg17
F7.799963185245184e-07
sg18
F7.721511122067135e-07
sg34
g6
sg35
g6
sg21
F7.721511122067135e-07
sg22
I184899
sg23
F7.950400394553385e-07
sg24
g6
ssS'GAHN ROBERT S'
p232
(dp233
g3
g27
sg28
g6
sg29
F7.524142356654664e-07
sg7
g27
sg8
F7.447353465081265e-07
sg9
I00
sg30
F6.427198492119556e-07
sg11
g6
sg13
g6
sg32
g6
sg33
g6
sg16
F7.533226075168297e-07
sg17
F7.875879076155046e-07
sg18
F7.796541885792745e-07
sg34
g6
sg35
g6
sg21
F7.7436087777671e-07
sg22
I192008
sg23
F7.967539762152641e-07
sg36
F7.5497428371108e-07
ssS'MCCLELLAN GEORGE'
p234
(dp235
g3
F0.02981651376146789
sg4
F6.595118403731009e-07
sg5
g6
sg7
F0.0
sg8
F7.738553977955838e-07
sg9
I00
sg30
F7.627943628060776e-07
sg11
S'george.mcclellan@enron.com'
p236
sg13
g6
sg14
F6.540599931987895e-07
sg15
F5.057498875590772e-07
sg16
F7.453478957144479e-07
sg17
F7.967437626560725e-07
sg18
F7.975563930738226e-07
sg19
F5.092679898741093e-07
sg20
F0.0
sg21
F7.851789296798918e-07
sg22
I263413
sg23
F8.026527500052527e-07
sg36
F7.874869784893277e-07
ssS'HERMANN ROBERT J'
p237
(dp238
g3
g27
sg28
g6
sg5
g6
sg7
g27
sg8
F7.440095123544342e-07
sg9
I00
sg30
F7.774143833250749e-07
sg11
S'robert.hermann@enron.com'
p239
sg31
F7.66199540106036e-07
sg32
g6
sg33
g6
sg16
F7.842139236239146e-07
sg17
F7.927503573298782e-07
sg18
F7.920003528182942e-07
sg34
g6
sg35
g6
sg21
F7.866098538521595e-07
sg22
I262663
sg23
F8.024047446292591e-07
sg36
F7.702858212400126e-07
ssS'SCRIMSHAW MATTHEW'
p240
(dp241
g3
g27
sg28
g6
sg5
g6
sg7
g27
sg42
g6
sg9
I00
sg10
g6
sg11
S'matthew.scrimshaw@enron.com'
p242
sg13
g6
sg32
g6
sg33
g6
sg44
g6
sg45
g6
sg18
F7.940573929147484e-07
sg34
g6
sg35
g6
sg68
g6
sg22
g6
sg46
g6
sg36
F7.940573929147484e-07
ssS'GATHMANN WILLIAM D'
p243
(dp244
g3
g27
sg28
g6
sg5
g6
sg7
g27
sg42
g6
sg9
I00
sg10
g6
sg11
g6
sg13
g6
sg32
g6
sg33
g6
sg44
g6
sg45
g6
sg18
F8.084748635851238e-07
sg34
g6
sg35
g6
sg21
F7.763860121787616e-07
sg22
g6
sg46
g6
sg36
F8.069402624207993e-07
ssS'HAEDICKE MARK E'
p245
(dp246
g3
F0.04489897730107259
sg4
F6.841462116269536e-07
sg29
F8.09994133219528e-07
sg7
F0.03142709943328181
sg8
F7.532245781103522e-07
sg9
I00
sg30
F7.973338306569509e-07
sg11
S'mark.haedicke@enron.com'
p247
sg31
F7.981306494109173e-07
sg14
F6.613045752524513e-07
sg15
F6.628434975940064e-07
sg16
F7.456631158856691e-07
sg17
F8.005568057725121e-07
sg18
F7.949442550085106e-07
sg19
F5.736750859987826e-07
sg20
F5.184995016030996e-07
sg21
F7.880442197946281e-07
sg22
I374125
sg23
F8.182978253625402e-07
sg36
F7.904929446164901e-07
ssS'BOWEN JR RAYMOND M'
p248
(dp249
g3
F0.07534983853606028
sg4
F6.614892406916497e-07
sg5
g6
sg7
F0.5555555555555556
sg8
F7.503367798231128e-07
sg9
I01
sg30
F6.349996136961616e-07
sg11
S'raymond.bowen@enron.com'
p250
sg31
F7.979863068265816e-07
sg14
F6.566517522384761e-07
sg15
F4.6781204771187324e-07
sg16
F6.572049864549275e-07
sg17
F8.030086805901009e-07
sg18
F7.755712583725419e-07
sg19
F5.618982127693313e-07
sg20
F4.251157337115135e-07
sg21
F7.755712583725419e-07
sg22
I278601
sg23
F8.130800674392871e-07
sg24
g6
ssS'GILLIS JOHN'
p251
(dp252
g3
g27
sg28
g6
sg5
g6
sg7
g27
sg42
g6
sg9
I00
sg10
g6
sg11
g6
sg13
g6
sg32
g6
sg33
g6
sg44
g6
sg45
g6
sg18
F7.555323439635574e-07
sg34
g6
sg35
g6
sg21
F7.531382959278134e-07
sg22
g6
sg46
g6
sg36
F7.077298922982933e-07
ssS'FITZGERALD JAY L'
p253
(dp254
g3
F0.0010683760683760685
sg4
F6.390537428304946e-07
sg5
g6
sg7
F0.5
sg8
F7.287693177147788e-07
sg9
I00
sg10
g6
sg11
S'jay.fitzgerald@enron.com'
p255
sg31
F7.89025381383656e-07
sg14
F6.29972951463907e-07
sg15
F4.300826932925155e-07
sg16
F7.777481610539874e-07
sg17
F7.812670534556569e-07
sg18
F8.057685246602366e-07
sg19
F1.664383780961362e-07
sg20
F3.7292898545780936e-07
sg21
F7.977028169624495e-07
sg22
I199157
sg23
F8.037200205408911e-07
sg36
F7.919114665783166e-07
ssS'MORAN MICHAEL P'
p256
(dp257
g3
F0.0
sg4
F6.273315934070391e-07
sg5
g6
sg7
F0.0
sg42
g6
sg9
I00
sg10
g6
sg11
S'michael.moran@enron.com'
p258
sg13
g6
sg14
F5.571750725289716e-07
sg15
F4.429652995338945e-07
sg44
g6
sg45
g6
sg18
F7.732520320964492e-07
sg19
F0.0
sg20
F0.0
sg21
F7.675736385523263e-07
sg22
g6
sg46
g6
sg36
F7.482829680823706e-07
ssS'REDMOND BRIAN L'
p259
(dp260
g3
F0.12208258527827648
sg4
F6.581661703012679e-07
sg5
g6
sg7
F0.22171945701357465
sg8
F7.175643828451107e-07
sg9
I00
sg10
g6
sg11
S'brian.redmond@enron.com'
p261
sg13
g6
sg14
F6.433950196771224e-07
sg15
F5.828841850327398e-07
sg44
g6
sg45
g6
sg18
F8.280092073066233e-07
sg19
F5.793339641162403e-07
sg20
F5.057498875590772e-07
sg21
F7.827244041195123e-07
sg22
I96840
sg23
F7.606333689177599e-07
sg36
F8.273535360819905e-07
ssS'BAZELIDES PHILIP J'
p262
(dp263
g3
g27
sg28
g6
sg29
F7.923948735087228e-07
sg7
g27
sg42
g6
sg9
I00
sg10
g6
sg11
g6
sg31
F7.572948627445584e-07
sg32
g6
sg33
g6
sg16
F6.366794365106448e-07
sg45
g6
sg18
F8.055678022955256e-07
sg34
g6
sg35
g6
sg68
g6
sg22
I80818
sg23
F7.960302548896843e-07
sg36
F8.055678022955256e-07
ssS'BELDEN TIMOTHY N'
p264
(dp265
g3
F0.028532098610937303
sg4
F7.025727728490573e-07
sg29
F8.099022774387707e-07
sg7
F0.2231404958677686
sg8
F7.214845496633026e-07
sg9
I01
sg30
F8.111422520294642e-07
sg11
S'tim.belden@enron.com'
p266
sg13
g6
sg14
F6.928994869781173e-07
sg15
F6.15084884984414e-07
sg16
F7.723873276569132e-07
sg17
F8.225424386332075e-07
sg18
F8.000207940169032e-07
sg19
F5.842531174887192e-07
sg20
F5.49117323331163e-07
sg21
F7.671086156935077e-07
sg22
I213999
sg23
F8.231792713780214e-07
sg36
F7.976432213451782e-07
ssS'DURAN WILLIAM D'
p267
(dp268
g3
F0.1172566371681416
sg4
F6.378518095432531e-07
sg5
g6
sg7
F0.25
sg8
F7.304936591370755e-07
sg9
I00
sg10
g6
sg11
S'w.duran@enron.com'
p269
sg31
F7.999443143107361e-07
sg14
F6.231153426265692e-07
sg15
F4.0738746333277225e-07
sg16
F6.561482838972683e-07
sg17
F7.938553188492856e-07
sg18
F8.059488881811629e-07
sg19
F5.481710667245174e-07
sg20
F2.785073135845828e-07
sg21
F7.704340474626714e-07
sg22
I210692
sg23
F8.09551649011398e-07
sg36
F8.04110303491468e-07
ssS'THORN TERENCE H'
p270
(dp271
g3
F0.0
sg4
F5.909067845907488e-07
sg29
F7.204268277767386e-07
sg7
F0.0
sg8
F7.430345642006735e-07
sg9
I00
sg10
g6
sg11
S'terence.thorn@enron.com'
p272
sg31
F7.714514298418187e-07
sg14
F5.285181273082348e-07
sg15
F4.949206058651935e-07
sg16
F7.846200461242063e-07
sg45
g6
sg18
F8.213678484394888e-07
sg19
F0.0
sg20
F0.0
sg21
F7.819977216155336e-07
sg22
I222093
sg23
F7.969424218500331e-07
sg36
F8.202828577884621e-07
ssS'FASTOW ANDREW S'
p273
(dp274
g3
g27
sg28
g6
sg5
g6
sg7
g27
sg8
F7.470049176791431e-07
sg9
I01
sg30
F8.03408580086322e-07
sg11
S'andrew.fastow@enron.com'
p275
sg31
F8.067893277090764e-07
sg32
g6
sg33
g6
sg16
F7.772556026559991e-07
sg17
F8.024345352533426e-07
sg18
F8.072805047734733e-07
sg34
g6
sg35
g6
sg21
F8.072805047734733e-07
sg22
I440698
sg23
F8.116886879389123e-07
sg24
g6
ssS'FOY JOE'
p276
(dp277
g3
F0.0
sg4
F5.146157265316911e-07
sg29
F7.69721211691679e-07
sg7
F0.0
sg42
g6
sg9
I00
sg10
g6
sg11
S'tracy.foy@enron.com'
p278
sg13
g6
sg14
F2.3655237201640701e-07
sg15
F4.1384654091903267e-07
sg44
g6
sg45
g6
sg18
F7.809431392387713e-07
sg19
F0.0
sg20
F0.0
sg68
g6
sg22
g6
sg23
F7.69721211691679e-07
sg36
F7.809431392387713e-07
ssS'CALGER CHRISTOPHER F'
p279
(dp280
g3
F0.07659738260200154
sg4
F6.716647147682496e-07
sg5
g6
sg7
F0.1736111111111111
sg8
F7.376735750222114e-07
sg9
I01
sg30
F7.762851790003928e-07
sg11
S'christopher.calger@enron.com'
p281
sg31
F7.824561230122229e-07
sg14
F6.665120993538663e-07
sg15
F5.632468602073462e-07
sg16
F6.152429522078986e-07
sg17
F8.018359459954691e-07
sg18
F7.629484944658914e-07
sg19
F5.782225417406376e-07
sg20
F4.62536548653722e-07
sg21
F7.629484944658914e-07
sg22
I240189
sg23
F8.059341890613009e-07
sg24
g6
ssS'RICE KENNETH D'
p282
(dp283
g3
F0.04640883977900553
sg4
F6.378901104524496e-07
sg5
g6
sg7
F0.2222222222222222
sg8
F7.433952440425931e-07
sg9
I01
sg30
F8.169473182430726e-07
sg11
S'ken.rice@enron.com'
p284
sg31
F8.057294824886972e-07
sg14
F6.362782618289909e-07
sg15
F4.3896542688131073e-07
sg16
F7.690149889762742e-07
sg17
F8.069083066930195e-07
sg18
F8.413601545331666e-07
sg19
F4.964093623209113e-07
sg20
F3.0757704872836045e-07
sg21
F8.134973984625992e-07
sg22
I420636
sg23
F7.874309427754756e-07
sg36
F8.397608319043833e-07
ssS'KAMINSKI WINCENTY J'
p285
(dp286
g3
F0.008899500759713479
sg4
F6.879944710830544e-07
sg5
g6
sg7
F0.011901447661469933
sg8
F7.550561592136917e-07
sg9
I00
sg10
g6
sg11
S'vince.kaminski@enron.com'
p287
sg31
F7.799148988633835e-07
sg14
F6.221110939247762e-07
sg15
F7.170392512830473e-07
sg16
F6.883607608403969e-07
sg17
F7.835351303094822e-07
sg18
F7.98014226369823e-07
sg19
F4.949206058651935e-07
sg20
F5.713171754705515e-07
sg21
F7.629484944658914e-07
sg22
I275101
sg23
F7.996848527439882e-07
sg36
F7.958432879515469e-07
ssS'LOCKHART EUGENE E'
p288
(dp289
g3
g27
sg28
g6
sg5
g6
sg7
g27
sg42
g6
sg9
I00
sg10
g6
sg11
g6
sg13
g6
sg32
g6
sg33
g6
sg44
g6
sg45
g6
sg72
g6
sg34
g6
sg35
g6
sg68
g6
sg22
g6
sg46
g6
sg24
g6
ssS'COX DAVID'
p290
(dp291
g3
F0.0
sg4
F5.462125654309651e-07
sg5
g6
sg7
F0.12121212121212122
sg8
F7.3220896414437e-07
sg9
I00
sg30
F7.406796482450255e-07
sg11
S'chip.cox@enron.com'
p292
sg13
g6
sg14
F5.269929807597357e-07
sg15
F4.811482344597239e-07
sg16
F6.158677074580286e-07
sg17
F7.948829727852088e-07
sg18
F7.871195123382126e-07
sg19
F0.0
sg20
F3.0757704872836045e-07
sg21
F7.825813074388977e-07
sg22
I314288
sg23
F7.998907561440552e-07
sg36
F7.616330057969478e-07
ssS'OVERDYKE JR JERE C'
p293
(dp294
g3
g27
sg28
g6
sg5
g6
sg7
g27
sg8
F7.233791886506759e-07
sg9
I00
sg10
g6
sg11
S'jere.overdyke@enron.com'
p295
sg31
F7.643545970625348e-07
sg32
g6
sg33
g6
sg16
F5.726448483024126e-07
sg45
g6
sg18
F8.269925149385247e-07
sg34
g6
sg35
g6
sg21
F8.091809439018925e-07
sg22
I94941
sg23
F7.754119638136028e-07
sg36
F8.22585398858311e-07
ssS'PEREIRA PAULO V. FERRAZ'
p296
(dp297
g3
g27
sg28
g6
sg5
g6
sg7
g27
sg8
F7.322729836154141e-07
sg9
I00
sg30
F7.587816248466047e-07
sg11
g6
sg13
g6
sg32
g6
sg33
g6
sg44
g6
sg45
g6
sg72
g6
sg34
g6
sg35
g6
sg68
g6
sg22
g6
sg23
F7.322729836154141e-07
sg24
g6
ssS'STABLER FRANK'
p298
(dp299
g3
g27
sg28
g6
sg5
g6
sg7
g27
sg8
F7.203250021976276e-07
sg9
I00
sg10
g6
sg11
S'frank.stabler@enron.com'
p300
sg13
g6
sg32
g6
sg33
g6
sg16
F7.815607009591741e-07
sg17
F7.872647280266657e-07
sg18
F7.876481764299391e-07
sg34
g6
sg35
g6
sg21
F7.876481764299391e-07
sg22
I239502
sg23
F8.000399921984725e-07
sg24
g6
ssS'SKILLING JEFFREY K'
p301
(dp302
g3
F0.0242624758753791
sg4
F6.813300731956332e-07
sg5
g6
sg7
F0.2777777777777778
sg8
F7.33343512973882e-07
sg9
I01
sg10
g6
sg11
S'jeff.skilling@enron.com'
p303
sg31
F8.082813629601872e-07
sg14
F6.644047594095901e-07
sg15
F5.49117323331163e-07
sg16
F7.270552451987705e-07
sg17
F8.234197475768665e-07
sg18
F8.43142228910308e-07
sg19
F5.385525886589733e-07
sg20
F4.748885035267985e-07
sg21
F8.261187014896347e-07
sg22
I1111258
sg23
F8.292691907344493e-07
sg36
F8.39416002858859e-07
ssS'BLAKE JR. NORMAN P'
p304
(dp305
g3
g27
sg28
g6
sg5
g6
sg7
g27
sg8
F6.495573721787056e-07
sg9
I00
sg30
F7.610144924515316e-07
sg11
g6
sg13
g6
sg32
g6
sg33
g6
sg44
g6
sg45
g6
sg72
g6
sg34
g6
sg35
g6
sg68
g6
sg22
g6
sg23
F6.495573721787056e-07
sg24
g6
ssS'SHERRICK JEFFREY B'
p306
(dp307
g3
F0.0636215334420881
sg4
F6.239687726556396e-07
sg5
g6
sg7
F0.72
sg42
g6
sg9
I00
sg10
g6
sg11
S'jeffrey.sherrick@enron.com'
p308
sg13
g6
sg14
F6.221110939247762e-07
sg15
F4.62536548653722e-07
sg44
g6
sg45
g6
sg18
F8.075915920892042e-07
sg19
F4.918057145209909e-07
sg20
F4.3896542688131073e-07
sg21
F7.837862764087091e-07
sg22
g6
sg46
g6
sg36
F8.038436453575118e-07
ssS'PRENTICE JAMES'
p309
(dp310
g3
g27
sg28
g6
sg29
F7.892572464620839e-07
sg7
g27
sg42
g6
sg9
I00
sg10
g6
sg11
S'james.prentice@enron.com'
p311
sg13
g6
sg32
g6
sg33
g6
sg44
g6
sg45
g6
sg18
F7.998013532199876e-07
sg34
g6
sg35
g6
sg21
F7.722259081085796e-07
sg22
g6
sg23
F7.892572464620839e-07
sg36
F7.965012656979565e-07
ssS'GRAY RODNEY'
p312
(dp313
g3
g27
sg28
g6
sg29
F7.572606974534543e-07
sg7
g27
sg42
g6
sg9
I00
sg10
g6
sg11
g6
sg31
F7.820119267121342e-07
sg32
g6
sg33
g6
sg16
F7.92303835858173e-07
sg45
g6
sg72
g6
sg34
g6
sg35
g6
sg68
g6
sg22
I6615
sg23
F8.005119969328837e-07
sg24
g6
ssS'PICKERING MARK R'
p314
(dp315
g3
F0.0077951002227171495
sg4
F6.376209701376117e-07
sg5
g6
sg7
F0.0
sg8
F7.35003555445758e-07
sg9
I00
sg10
g6
sg11
S'mark.pickering@enron.com'
p316
sg13
g6
sg14
F6.302202037032773e-07
sg15
F5.237806397474065e-07
sg44
g6
sg17
F7.786140584502198e-07
sg18
F7.329371882065115e-07
sg19
F3.6094749122772297e-07
sg20
F0.0
sg68
g6
sg22
I655037
sg23
F8.034155216883158e-07
sg36
F7.329371882065115e-07
ssS'THE TRAVEL AGENCY IN THE PARK'
p317
(dp318
g3
g27
sg28
g6
sg5
g6
sg7
g27
sg42
g6
sg9
I00
sg10
g6
sg11
g6
sg13
g6
sg32
g6
sg33
g6
sg16
F7.818467704051722e-07
sg45
g6
sg72
g6
sg34
g6
sg35
g6
sg68
g6
sg22
g6
sg23
F7.818467704051722e-07
sg24
g6
ssS'NOLES JAMES L'
p319
(dp320
g3
g27
sg28
g6
sg29
F7.9436584039834e-07
sg7
g27
sg42
g6
sg9
I00
sg10
g6
sg11
g6
sg13
g6
sg32
g6
sg33
g6
sg44
g6
sg45
g6
sg18
F7.821546547312098e-07
sg34
g6
sg35
g6
sg21
F7.859975661327388e-07
sg22
g6
sg23
F7.9436584039834e-07
sg24
g6
ssS'KEAN STEVEN J'
p321
(dp322
g3
F0.010976948408342482
sg4
F7.141834311514602e-07
sg5
g6
sg7
F0.05725699067909454
sg8
F7.410363462911529e-07
sg9
I00
sg10
g6
sg11
S'steven.kean@enron.com'
p323
sg31
F7.786140584502198e-07
sg14
F6.814235714435484e-07
sg15
F6.982485424046041e-07
sg16
F6.482972574668868e-07
sg17
F7.983924559293834e-07
sg18
F8.246935767090478e-07
sg19
F5.618982127693313e-07
sg20
F6.063438504742783e-07
sg21
F8.192475833292127e-07
sg22
I404338
sg23
F8.068872394557307e-07
sg36
F8.090438163094608e-07
ssS'FOWLER PEGGY'
p324
(dp325
g3
F0.0
sg4
F6.176000642285023e-07
sg5
g6
sg7
F0.0
sg42
g6
sg9
I00
sg10
g6
sg11
S'kulvinder.fowler@enron.com'
p326
sg13
g6
sg14
F3.9225306481958874e-07
sg15
F4.86748360847706e-07
sg44
g6
sg45
g6
sg18
F8.080077430724652e-07
sg19
F0.0
sg20
F0.0
sg21
F7.891355622503786e-07
sg22
g6
sg46
g6
sg36
F8.027196965800944e-07
ssS'WASAFF GEORGE'
p327
(dp328
g3
F0.055
sg4
F6.076562479840646e-07
sg29
F7.954913553587468e-07
sg7
F0.23333333333333334
sg42
g6
sg9
I00
sg30
F7.897978789904956e-07
sg11
S'george.wasaff@enron.com'
p329
sg31
F7.714514298418187e-07
sg14
F6.007662720555954e-07
sg15
F4.748885035267985e-07
sg16
F6.53079350980137e-07
sg17
F7.799963185245184e-07
sg18
F8.092913457869452e-07
sg19
F4.5357009233810296e-07
sg20
F3.6094749122772297e-07
sg21
F7.830274769417086e-07
sg22
I259996
sg23
F7.989184938592288e-07
sg36
F8.061957710800453e-07
ssS'WHITE JR THOMAS E'
p330
(dp331
g3
g27
sg28
g6
sg5
g6
sg7
g27
sg8
F7.545243768384127e-07
sg9
I00
sg10
g6
sg11
S'thomas.white@enron.com'
p332
sg13
g6
sg32
g6
sg33
g6
sg16
F7.996655117457682e-07
sg17
F7.85513061310377e-07
sg18
F8.364199969145081e-07
sg34
g6
sg35
g6
sg21
F8.352884915730385e-07
sg22
I317543
sg23
F8.083912612746029e-07
sg36
F8.023999045822141e-07
ssS'CHRISTODOULOU DIOMEDES'
p333
(dp334
g3
g27
sg28
g6
sg5
g6
sg7
g27
sg42
g6
sg9
I00
sg10
g6
sg11
S'diomedes.christodoulou@enron.com'
p335
sg13
g6
sg32
g6
sg33
g6
sg44
g6
sg45
g6
sg18
F8.245267260017424e-07
sg34
g6
sg35
g6
sg21
F7.976036826416078e-07
sg22
g6
sg46
g6
sg36
F8.222194971623807e-07
ssS'ALLEN PHILLIP K'
p336
(dp337
g3
F0.016195727084769126
sg4
F6.749194614033314e-07
sg29
F8.141156662159577e-07
sg7
F0.029612756264236904
sg8
F7.161945848447027e-07
sg9
I00
sg30
F8.151278581063618e-07
sg11
S'phillip.allen@enron.com'
p338
sg31
F7.788892716154436e-07
sg14
F6.526681055677354e-07
sg15
F6.666090697571183e-07
sg16
F5.658147352609766e-07
sg17
F8.193925990057837e-07
sg18
F8.067333952769945e-07
sg19
F5.032555926615568e-07
sg20
F5.220861567112822e-07
sg21
F7.629484944658914e-07
sg22
I201955
sg23
F8.203815593147775e-07
sg36
F8.067333952769945e-07
ssS'SHARP VICTORIA T'
p339
(dp340
g3
F0.007653061224489796
sg4
F6.77170868702495e-07
sg29
F7.702828257549161e-07
sg7
F0.04411764705882353
sg8
F7.614360845911814e-07
sg9
I00
sg10
g6
sg11
S'vicki.sharp@enron.com'
p341
sg31
F7.8444313574841e-07
sg14
F6.702463685960213e-07
sg15
F5.605027309919402e-07
sg16
F6.693144916072875e-07
sg17
F7.902573624488331e-07
sg18
F7.870694117598153e-07
sg19
F4.597011308389855e-07
sg20
F3.4673729283499493e-07
sg21
F7.725872030696526e-07
sg22
I248146
sg23
F8.053495327713817e-07
sg36
F7.774810920046469e-07
ssS'JAEDICKE ROBERT'
p342
(dp343
g3
g27
sg28
g6
sg5
g6
sg7
g27
sg42
g6
sg9
I00
sg30
F7.298046277804695e-07
sg11
g6
sg13
g6
sg32
g6
sg33
g6
sg44
g6
sg45
g6
sg18
F7.848202093825442e-07
sg34
g6
sg35
g6
sg21
F7.420827281380565e-07
sg22
g6
sg23
F7.550948483501147e-07
sg36
F7.848202093825442e-07
ssS'WINOKUR JR. HERBERT S'
p344
(dp345
g3
g27
sg28
g6
sg5
g6
sg7
g27
sg8
F6.528058558748517e-07
sg9
I00
sg30
F7.298046277804695e-07
sg11
g6
sg13
g6
sg32
g6
sg33
g6
sg44
g6
sg45
g6
sg72
g6
sg34
g6
sg35
g6
sg68
g6
sg22
g6
sg23
F7.553834033632677e-07
sg24
g6
ssS'BROWN MICHAEL'
p346
(dp347
g3
F0.008748317631224764
sg4
F6.544298786671589e-07
sg5
g6
sg7
F0.024390243902439025
sg8
F7.444051946189012e-07
sg9
I00
sg10
g6
sg11
S'michael.brown@enron.com'
p348
sg13
g6
sg14
F6.318041637501618e-07
sg15
F4.949206058651935e-07
sg44
g6
sg45
g6
sg72
g6
sg19
F4.1384654091903267e-07
sg20
F1.664383780961362e-07
sg68
g6
sg22
g6
sg23
F7.444051946189012e-07
sg24
g6
ssS'BADUM JAMES P'
p349
(dp350
g3
g27
sg28
g6
sg29
F7.69441441792141e-07
sg7
g27
sg8
F6.802044294911493e-07
sg9
I00
sg10
g6
sg11
g6
sg13
g6
sg32
g6
sg33
g6
sg44
g6
sg45
g6
sg18
F7.75969007736917e-07
sg34
g6
sg35
g6
sg68
g6
sg22
g6
sg23
F7.697921402619466e-07
sg36
F7.75969007736917e-07
ssS'HUGHES JAMES A'
p351
(dp352
g3
F0.048678720445062586
sg4
F6.297737163944741e-07
sg5
g6
sg7
F0.14705882352941177
sg42
g6
sg9
I00
sg10
g6
sg11
S'james.hughes@enron.com'
p353
sg13
g6
sg14
F6.224914062925761e-07
sg15
F4.830817789903202e-07
sg44
g6
sg45
g6
sg18
F8.0012727948836e-07
sg19
F4.849470620294596e-07
sg20
F3.2943057864295903e-07
sg21
F7.819093131969083e-07
sg22
g6
sg46
g6
sg36
F7.939606673822496e-07
ssS'REYNOLDS LAWRENCE'
p354
(dp355
g3
g27
sg28
g6
sg29
F7.452589117787174e-07
sg7
g27
sg8
F7.038716083671357e-07
sg9
I00
sg30
F7.714514298418187e-07
sg11
g6
sg31
F7.669536900093367e-07
sg32
g6
sg33
g6
sg16
F7.716351318727543e-07
sg17
F7.585424198826471e-07
sg18
F8.195474432821638e-07
sg34
g6
sg35
g6
sg21
F7.715843985020113e-07
sg22
I76399
sg23
F7.833001672351678e-07
sg36
F8.193449106917161e-07
ssS'DIMICHELE RICHARD G'
p356
(dp357
g3
g27
sg28
g6
sg5
g6
sg7
g27
sg8
F7.376699808834158e-07
sg9
I00
sg10
g6
sg11
S'richard.dimichele@enron.com'
p358
sg31
F7.926319768990223e-07
sg32
g6
sg33
g6
sg16
F7.824282727065686e-07
sg17
F7.983924559293834e-07
sg18
F8.287049553247084e-07
sg34
g6
sg35
g6
sg21
F7.629484944658914e-07
sg22
I262788
sg23
F8.113503852343344e-07
sg36
F8.285038982531729e-07
ssS'BHATNAGAR SANJAY'
p359
(dp360
g3
F0.0
sg4
F6.180372199590724e-07
sg5
g6
sg7
F0.034482758620689655
sg42
g6
sg9
I00
sg10
g6
sg11
S'sanjay.bhatnagar@enron.com'
p361
sg13
g6
sg14
F6.133776291302474e-07
sg15
F4.726296842340434e-07
sg16
F7.646313861379661e-07
sg45
g6
sS'total_stock_value'
p362
S'NaN'
p363
sg19
F0.0
sg20
F1.664383780961362e-07
sg21
g27
sg22
g6
sg23
F8.366768171714669e-07
sg36
F8.127250260673858e-07
ssS'CARTER REBECCA C'
p364
(dp365
g3
F0.09294871794871795
sg4
F5.975994847164277e-07
sg5
g6
sg7
F0.4666666666666667
sg42
g6
sg9
I00
sg30
F7.673665304047621e-07
sg11
S'rebecca.carter@enron.com'
p366
sg31
F7.52917983935286e-07
sg14
F5.775396587826283e-07
sg15
F4.251157337115135e-07
sg16
F6.192447326026197e-07
sg17
F7.786140584502198e-07
sg72
g6
sg19
F4.726296842340434e-07
sg20
F3.6094749122772297e-07
sg21
F7.790303694428875e-07
sg22
I261809
sg23
F7.865032411828257e-07
sg24
g6
ssS'BUCHANAN HAROLD G'
p367
(dp368
g3
F0.0
sg4
F6.441790062340983e-07
sg5
g6
sg7
F0.0
sg8
F6.231770684641068e-07
sg9
I00
sg10
g6
sg11
S'john.buchanan@enron.com'
p369
sg31
F7.788892716154436e-07
sg14
F4.567172356618806e-07
sg15
F5.563971912536035e-07
sg16
F6.478646003476969e-07
sg17
F7.872647280266657e-07
sg18
F7.986166533599256e-07
sg19
F0.0
sg20
F0.0
sg21
F7.704340474626714e-07
sg22
I248017
sg23
F7.992192792895827e-07
sg36
F7.953798432420071e-07
ssS'YEAP SOON'
p370
(dp371
g3
g27
sg28
g6
sg5
g6
sg7
g27
sg8
F7.467010543739432e-07
sg9
I00
sg10
g6
sg11
g6
sg13
g6
sg32
g6
sg33
g6
sg44
g6
sg45
g6
sg18
F7.707861987848582e-07
sg34
g6
sg35
g6
sg68
g6
sg22
g6
sg23
F7.467010543739432e-07
sg36
F7.707861987848582e-07
ssS'MURRAY JULIA H'
p372
(dp373
g3
F0.005018248175182482
sg4
F6.665675542697787e-07
sg5
g6
sg7
F0.044444444444444446
sg8
F7.476019637055696e-07
sg9
I00
sg10
g6
sg11
S'julia.murray@enron.com'
p374
sg31
F7.627943628060776e-07
sg14
F6.071574789400975e-07
sg15
F5.006286492593823e-07
sg16
F5.999081541022924e-07
sg17
F7.835351303094822e-07
sg18
F7.901883030344354e-07
sg19
F4.002380824992422e-07
sg20
F2.3655237201640701e-07
sg21
F7.711775548667306e-07
sg22
I229284
sg23
F7.95123021224841e-07
sg36
F7.835552917567487e-07
ssS'GARLAND C KEVIN'
p375
(dp376
g3
F0.04784688995215311
sg4
F5.804135319988019e-07
sg5
g6
sg7
F0.6136363636363636
sg8
F7.440301180684384e-07
sg9
I00
sg10
g6
sg11
S'kevin.garland@enron.com'
p377
sg31
F7.824561230122229e-07
sg14
F5.73163408831089e-07
sg15
F4.992612837630086e-07
sg16
F7.487130287507259e-07
sg17
F7.958431021259847e-07
sg18
F7.966764177173639e-07
sg19
F3.9225306481958874e-07
sg20
F4.6781204771187324e-07
sg21
F7.761108828118587e-07
sg22
I231946
sg23
F8.052536883457704e-07
sg36
F7.912099392008768e-07
ssS'DODSON KEITH'
p378
(dp379
g3
F0.056818181818181816
sg4
F5.726448483024126e-07
sg5
g6
sg7
F0.21428571428571427
sg8
F7.324473924548e-07
sg9
I00
sg10
g6
sg11
S'keith.dodson@enron.com'
p380
sg13
g6
sg14
F5.518345491700032e-07
sg15
F4.197268584569283e-07
sg16
F6.324064060130822e-07
sg17
F7.515443694377434e-07
sg72
g6
sg19
F3.9225306481958874e-07
sg20
F2.785073135845828e-07
sg68
g6
sg22
I221003
sg23
F7.797261946854964e-07
sg24
g6
ssS'YEAGER F SCOTT'
p381
(dp382
g3
g27
sg28
g6
sg5
g6
sg7
g27
sg8
F7.462684705451151e-07
sg9
I01
sg10
g6
sg11
S'scott.yeager@enron.com'
p383
sg13
g6
sg32
g6
sg33
g6
sg16
F7.659446439266009e-07
sg45
g6
sg18
F8.33340294043428e-07
sg34
g6
sg35
g6
sg21
F8.172323484120065e-07
sg22
I158403
sg23
F7.817620422392347e-07
sg36
F8.28690341644867e-07
ssS'HIRKO JOSEPH'
p384
(dp385
g3
g27
sg28
g6
sg29
F7.088596719251874e-07
sg7
g27
sg8
F7.536889434102789e-07
sg9
I01
sg10
g6
sg11
S'joe.hirko@enron.com'
p386
sg13
g6
sg32
g6
sg33
g6
sg16
F6.744525823106779e-07
sg45
g6
sg18
F8.451271595827562e-07
sg34
g6
sg35
g6
sg68
g6
sg22
g6
sg23
F7.567364806023985e-07
sg36
F8.451271595827562e-07
ssS'DIETRICH JANET R'
p387
(dp388
g3
F0.11858475894245724
sg4
F6.713663875093311e-07
sg5
g6
sg7
F0.2222222222222222
sg8
F6.801144474647065e-07
sg9
I00
sg10
g6
sg11
S'janet.dietrich@enron.com'
p389
sg31
F7.89025381383656e-07
sg14
F6.622155864617659e-07
sg15
F5.20327324752401e-07
sg16
F6.142016538861705e-07
sg17
F7.902573624488331e-07
sg18
F8.07852722706103e-07
sg19
F5.966589659559601e-07
sg20
F4.197268584569283e-07
sg21
F7.794615551596311e-07
sg22
I250100
sg23
F8.036729645334522e-07
sg36
F8.050952372933899e-07
ssS'DERRICK JR. JAMES V'
p390
(dp391
g3
F0.029344337459880788
sg4
F6.66414773982197e-07
sg5
g6
sg7
F0.022002200220022004
sg8
F7.451618293383672e-07
sg9
I00
sg30
F8.022457411136541e-07
sg11
S'james.derrick@enron.com'
p392
sg31
F7.867257757362345e-07
sg14
F6.52529678785874e-07
sg15
F6.380428261402206e-07
sg16
F7.008839060695979e-07
sg17
F7.948829727852088e-07
sg18
F8.294925694365965e-07
sg19
F5.212150634955927e-07
sg20
F4.467154203681486e-07
sg21
F8.072222409877049e-07
sg22
I492375
sg23
F7.888644206676815e-07
sg36
F8.294925694365965e-07
ssS'FREVERT MARK A'
p393
(dp394
g3
F0.07389312977099237
sg4
F6.784196026448525e-07
sg29
F8.252777512922713e-07
sg7
F0.2857142857142857
sg8
F7.55837315947937e-07
sg9
I00
sg30
F8.163841363430998e-07
sg11
S'mark.frevert@enron.com'
p395
sg31
F8.057294824886972e-07
sg14
F6.756824362049218e-07
sg15
F4.502427100103544e-07
sg16
F8.272088907091194e-07
sg17
F8.088826633143671e-07
sg18
F8.359776523676506e-07
sg19
F5.868475093625567e-07
sg20
F3.4673729283499493e-07
sg21
F8.194379231790899e-07
sg22
I1060932
sg23
F8.380542177278055e-07
sg36
F8.31662777306443e-07
ssS'PAI LOU L'
p396
(dp397
g3
g27
sg28
g6
sg5
g6
sg7
g27
sg8
F7.352723848015973e-07
sg9
I00
sg10
g6
sg11
S'lou.pai@enron.com'
p398
sg13
g6
sg32
g6
sg33
g6
sg16
F8.075672344763183e-07
sg17
F7.983924559293834e-07
sg18
F8.420327262177663e-07
sg34
g6
sg35
g6
sg21
F8.289182536420796e-07
sg22
I261879
sg23
F8.153215673118873e-07
sg36
F8.366016098993962e-07
ssS'BAY FRANKLIN R'
p399
(dp400
g3
g27
sg28
g6
sg29
F7.761478761795868e-07
sg7
g27
sg8
F7.634076856654942e-07
sg9
I00
sg30
F7.715985018625857e-07
sg11
S'frank.bay@enron.com'
p401
sg13
g6
sg32
g6
sg33
g6
sg16
F5.254149761062442e-07
sg17
F7.835351303094822e-07
sg18
F7.494321859047008e-07
sg34
g6
sg35
g6
sg21
F7.656726064707881e-07
sg22
I239671
sg23
F7.954225996113444e-07
sg24
g6
ssS'HAYSLETT RODERICK J'
p402
(dp403
g3
F0.01321253303133258
sg4
F6.722401351168255e-07
sg5
g6
sg7
F0.03581526861451461
sg42
g6
sg9
I00
sg10
g6
sg11
S'rod.hayslett@enron.com'
p404
sg13
g6
sg14
F6.213366059399195e-07
sg15
F6.433313836090095e-07
sg44
g6
sg45
g6
sg18
F7.811032691910632e-07
sg19
F4.849470620294596e-07
sg20
F4.901742712076745e-07
sg21
F7.811032691910632e-07
sg22
g6
sg46
g6
sg24
g6
ssS'FUGH JOHN L'
p405
(dp406
g3
g27
sg28
g6
sg29
F7.449453104209442e-07
sg7
g27
sg42
g6
sg9
I00
sg10
g6
sg11
g6
sg13
g6
sg32
g6
sg33
g6
sg44
g6
sg45
g6
sg18
F7.69174760203782e-07
sg34
g6
sg35
g6
sg68
g6
sg22
g6
sg23
F7.449453104209442e-07
sg36
F7.69174760203782e-07
ssS'FALLON JAMES B'
p407
(dp408
g3
F0.023931623931623933
sg4
F6.597090082996739e-07
sg5
g6
sg7
F0.49333333333333335
sg8
F7.577389326468174e-07
sg9
I00
sg10
g6
sg11
S'jim.fallon@enron.com'
p409
sg31
F7.824127636487305e-07
sg14
F6.568704146073362e-07
sg15
F5.299935865535719e-07
sg16
F7.835975118657136e-07
sg17
F8.121346179697577e-07
sg18
F8.111295862868762e-07
sg19
F4.964093623209113e-07
sg20
F4.884895755674743e-07
sg21
F8.034749802741154e-07
sg22
I304588
sg23
F8.176196091538498e-07
sg36
F7.974303015102822e-07
ssS'KOENIG MARK E'
p410
(dp411
g3
F0.02232518955349621
sg4
F6.689753010333059e-07
sg5
g6
sg7
F0.2459016393442623
sg8
F7.630957725659554e-07
sg9
I01
sg10
g6
sg11
S'mark.koenig@enron.com'
p412
sg31
F7.786140584502198e-07
sg14
F6.676396966254179e-07
sg15
F5.184995016030996e-07
sg16
F7.662559652173715e-07
sg17
F7.927503573298782e-07
sg18
F8.082817855276966e-07
sg19
F5.103862155555926e-07
sg20
F4.251157337115135e-07
sg21
F8.018153605350469e-07
sg22
I309946
sg23
F8.054529155236627e-07
sg36
F7.920871255455998e-07
ssS'SAVAGE FRANK'
p413
(dp414
g3
g27
sg28
g6
sg5
g6
sg7
g27
sg42
g6
sg9
I00
sg30
F7.622248090533285e-07
sg11
g6
sg13
g6
sg32
g6
sg33
g6
sg44
g6
sg45
g6
sg72
g6
sg34
g6
sg35
g6
sg68
g6
sg22
g6
sg23
F6.822721887929436e-07
sg24
g6
ssS'IZZO LAWRENCE L'
p415
(dp416
g3
F0.056451612903225805
sg4
F6.160220511288633e-07
sg5
g6
sg7
F0.2631578947368421
sg8
F7.323917796871598e-07
sg9
I00
sg10
g6
sg11
S'larry.izzo@enron.com'
p417
sg31
F7.793202893467841e-07
sg14
F6.111339302268634e-07
sg15
F4.429652995338945e-07
sg16
F8.051311315202404e-07
sg45
g6
sg18
F8.239414526648779e-07
sg19
F4.702735086554698e-07
sg20
F3.2943057864295903e-07
sg21
F8.175373036702251e-07
sg22
I85274
sg23
F8.087318057493729e-07
sg36
F8.100458219432232e-07
ssS'TILNEY ELIZABETH A'
p418
(dp419
g3
F0.021739130434782608
sg4
F6.131263574736494e-07
sg5
g6
sg7
F0.5789473684210527
sg42
g6
sg9
I00
sg30
F7.895631019379996e-07
sg11
S'elizabeth.tilney@enron.com'
p420
sg31
F7.770998033927589e-07
sg14
F6.055102540916563e-07
sg15
F4.429652995338945e-07
sg16
F7.664512498636972e-07
sg17
F7.786140584502198e-07
sg18
F8.007962958644345e-07
sg19
F3.9225306481958874e-07
sg20
F4.002380824992422e-07
sg21
F7.896139500614023e-07
sg22
I247338
sg23
F7.835094898527326e-07
sg36
F7.900180121783273e-07
ssS'MARTIN AMANDA K'
p421
(dp422
g3
F0.005256241787122208
sg4
F6.55197375132982e-07
sg29
F7.554840578569208e-07
sg7
F0.0
sg8
F7.032656433267283e-07
sg9
I00
sg10
g6
sg11
S'a..martin@enron.com'
p423
sg31
F8.222680747772387e-07
sg14
F6.145255802814949e-07
sg15
F5.846351206427425e-07
sg16
F8.138580019678401e-07
sg45
g6
sg18
F8.093900098999227e-07
sg19
F3.7292898545780936e-07
sg20
F0.0
sg68
g6
sg22
I349487
sg23
F8.28845345320958e-07
sg36
F8.093900098999227e-07
ssS'BUY RICHARD B'
p424
(dp425
g3
F0.04428044280442804
sg4
F6.805047474020669e-07
sg29
F7.915456992835467e-07
sg7
F0.06742640075973409
sg42
g6
sg9
I00
sg30
F7.926319768990223e-07
sg11
S'rick.buy@enron.com'
p426
sg31
F7.94272209965686e-07
sg14
F6.684517259310587e-07
sg15
F6.430754481032887e-07
sg16
F7.835592533996992e-07
sg17
F7.967437626560725e-07
sg18
F8.16704668354189e-07
sg19
F5.670389246249927e-07
sg20
F5.269929807597357e-07
sg21
F7.967726735262107e-07
sg22
I330546
sg23
F8.112739132447678e-07
sg36
F8.123796929473712e-07
ssS'GRAMM WENDY L'
p427
(dp428
g3
g27
sg28
g6
sg5
g6
sg7
g27
sg42
g6
sg9
I00
sg10
g6
sg11
g6
sg13
g6
sg32
g6
sg33
g6
sg44
g6
sg45
g6
sg72
g6
sg34
g6
sg35
g6
sg68
g6
sg22
g6
sg23
F7.619115434860411e-07
sg24
g6
ssS'CAUSEY RICHARD A'
p429
(dp430
g3
F0.0306553911205074
sg4
F6.620522085192498e-07
sg5
g6
sg7
F0.24489795918367346
sg8
F7.343191624071461e-07
sg9
I01
sg30
F7.74332982918687e-07
sg11
S'richard.causey@enron.com'
p431
sg31
F7.812670534556569e-07
sg14
F6.564916342943723e-07
sg15
F5.057498875590772e-07
sg16
F7.790637636574199e-07
sg17
F7.983924559293834e-07
sg18
F8.12146530863271e-07
sg19
F5.156169989924285e-07
sg20
F4.0738746333277225e-07
sg21
F8.12146530863271e-07
sg22
I415189
sg23
F8.07881801078871e-07
sg24
g6
ssS'TAYLOR MITCHELL S'
p432
(dp433
g3
F0.0
sg4
F6.18752966604479e-07
sg29
F7.737529640287502e-07
sg7
F0.0
sg42
g6
sg9
I00
sg10
g6
sg11
S'mitchell.taylor@enron.com'
p434
sg13
g6
sg14
F5.959714656405011e-07
sg15
F4.726296842340434e-07
sg44
g6
sg17
F7.902573624488331e-07
sg18
F8.178788091847666e-07
sg19
F0.0
sg20
F0.0
sg21
F7.892412838821063e-07
sg22
I265214
sg23
F7.997677581380083e-07
sg36
F8.15581854042757e-07
ssS'DONAHUE JR JEFFREY M'
p435
(dp436
g3
F0.21734104046242775
sg4
F6.363186206101247e-07
sg5
g6
sg7
F0.5
sg8
F7.57808183292178e-07
sg9
I00
sg30
F7.786140584502198e-07
sg11
S'jeff.donahue@enron.com'
p437
sg13
g6
sg14
F6.323145201077908e-07
sg15
F4.5357009233810296e-07
sg16
F6.373493919099165e-07
sg17
F7.948829727852088e-07
sg18
F7.996015914173395e-07
sg19
F5.756562294509597e-07
sg20
F4.002380824992422e-07
sg21
F7.794615551596311e-07
sg22
I278601
sg23
F7.96314098083844e-07
sg36
F7.941904065055977e-07
ssS'GLISAN JR BEN F'
p438
(dp439
g3
F0.05956471935853379
sg4
F6.366395586389472e-07
sg5
g6
sg7
F0.375
sg8
F7.629411720510032e-07
sg9
I01
sg10
g6
sg11
S'ben.glisan@enron.com'
p440
sg31
F7.518340385388489e-07
sg14
F6.366794365106448e-07
sg15
F4.300826932925155e-07
sg16
F7.714791343421229e-07
sg17
F7.902573624488331e-07
sg18
F7.944508239152645e-07
sg19
F5.092679898741093e-07
sg20
F3.4673729283499493e-07
sg21
F7.832719882873597e-07
sg22
I274975
sg23
F8.02105872519704e-07
sg36
F7.828767678738954e-07
ss.